target datalayout = "e-m:e-p270:32:32-p271:32:32-p272:64:64-i64:64-i128:128-f80:128-n8:16:32:64-S128"
target triple = "x86_64-pc-linux-gnu"

%struct.Type_ = type { i32, ptr, ptr, ptr, %union.anon.96, ptr, ptr, %union.anon.98 }
%union.anon.96 = type { ptr }
%union.anon.98 = type { %struct.TypeFunction }
%struct.TypeFunction = type { ptr, ptr, ptr }
%struct.TypeArray = type { ptr, i32 }
%struct.Decl_ = type { ptr, ptr, %union.SourceSpan, i64, %union.anon.5, i32, %union.anon.6, i64, ptr, ptr, ptr, %union.anon.7 }
%union.SourceSpan = type { i64 }
%union.anon.5 = type { ptr }
%union.anon.6 = type { i16 }
%union.anon.7 = type { %struct.FuncDecl }
%struct.FuncDecl = type { i32, [4 x i8], %struct.Signature_, i32, i32, %union.anon.14 }
%struct.Signature_ = type <{ %struct.CalleeAttributes, i16, i8, i32, i32, [4 x i8], ptr }>
%struct.CalleeAttributes = type { i8 }
%union.anon.14 = type { %struct.anon.15 }
%struct.anon.15 = type { i16, %union.anon.16 }
%union.anon.16 = type { ptr }
%struct.anon.8 = type { ptr, ptr, %union.anon.9 }
%union.anon.9 = type { %struct.BitStructDecl }
%struct.BitStructDecl = type { ptr, ptr, i8 }
%struct.TypeInfo_ = type { i16, ptr, %union.SourceSpan, %union.anon.56 }
%union.anon.56 = type { %struct.anon.57 }
%struct.anon.57 = type { ptr, ptr }
%struct.EnumDecl = type { ptr, ptr, ptr }

@.str = private unnamed_addr constant [36 x i8] c"FATAL ERROR %s -> in %s @ in %s:%d \00", align 1
@.str.1 = private unnamed_addr constant [22 x i8] c"Should be unreachable\00", align 1
@__func__.type_lowering = private unnamed_addr constant [14 x i8] c"type_lowering\00", align 1
@.str.2 = private unnamed_addr constant [117 x i8] c"generated/home/dtcxzyw/WorkSpace/Projects/compilers/llvm-opt-benchmark/bench/c3c/c3c/src/compiler/codegen_internal.h\00", align 1
@type_anyptr = external global ptr, align 8
@type_iptr = external global ptr, align 8
@type_void = external global ptr, align 8

; Function Attrs: nounwind uwtable
define internal ptr @type_lowering(ptr noundef %0) #0 {
  %2 = alloca ptr, align 8
  %3 = alloca ptr, align 8
  %4 = alloca ptr, align 8
  %5 = alloca ptr, align 8
  %6 = alloca ptr, align 8
  %7 = alloca ptr, align 8
  store ptr %0, ptr %3, align 8
  br label %8

8:                                                ; preds = %115, %47, %31, %22, %18, %1
  %9 = load ptr, ptr %3, align 8
  %10 = getelementptr inbounds %struct.Type_, ptr %9, i32 0, i32 1
  %11 = load ptr, ptr %10, align 8
  store ptr %11, ptr %3, align 8
  %12 = load ptr, ptr %3, align 8
  %13 = getelementptr inbounds %struct.Type_, ptr %12, i32 0, i32 0
  %14 = load i32, ptr %13, align 8
  switch i32 %14, label %113 [
    i32 31, label %15
    i32 40, label %18
    i32 32, label %22
    i32 24, label %31
    i32 20, label %41
    i32 21, label %43
    i32 22, label %43
    i32 30, label %43
    i32 29, label %47
    i32 41, label %57
    i32 23, label %59
    i32 34, label %73
    i32 33, label %73
    i32 37, label %73
    i32 35, label %73
  ]

15:                                               ; preds = %8
  br label %16

16:                                               ; preds = %15
  call void (ptr, ...) @error_exit(ptr noundef @.str, ptr noundef @.str.1, ptr noundef @__func__.type_lowering, ptr noundef @.str.2, i32 noundef 29) #4
  unreachable

17:                                               ; No predecessors!
  br label %18

18:                                               ; preds = %17, %8
  %19 = load ptr, ptr %3, align 8
  %20 = getelementptr inbounds %struct.Type_, ptr %19, i32 0, i32 7
  %21 = load ptr, ptr %20, align 8
  store ptr %21, ptr %3, align 8
  br label %8

22:                                               ; preds = %8
  %23 = load ptr, ptr %3, align 8
  %24 = getelementptr inbounds %struct.Type_, ptr %23, i32 0, i32 7
  %25 = load ptr, ptr %24, align 8
  %26 = getelementptr inbounds %struct.Decl_, ptr %25, i32 0, i32 11
  %27 = getelementptr inbounds %struct.anon.8, ptr %26, i32 0, i32 2
  %28 = load ptr, ptr %27, align 8
  %29 = getelementptr inbounds %struct.TypeInfo_, ptr %28, i32 0, i32 1
  %30 = load ptr, ptr %29, align 8
  store ptr %30, ptr %3, align 8
  br label %8

31:                                               ; preds = %8
  %32 = load ptr, ptr %3, align 8
  %33 = getelementptr inbounds %struct.Type_, ptr %32, i32 0, i32 7
  %34 = load ptr, ptr %33, align 8
  %35 = getelementptr inbounds %struct.Decl_, ptr %34, i32 0, i32 11
  %36 = getelementptr inbounds %struct.anon.8, ptr %35, i32 0, i32 2
  %37 = getelementptr inbounds %struct.EnumDecl, ptr %36, i32 0, i32 2
  %38 = load ptr, ptr %37, align 8
  %39 = getelementptr inbounds %struct.TypeInfo_, ptr %38, i32 0, i32 1
  %40 = load ptr, ptr %39, align 8
  store ptr %40, ptr %3, align 8
  br label %8

41:                                               ; preds = %8
  %42 = load ptr, ptr @type_anyptr, align 8
  store ptr %42, ptr %2, align 8
  br label %116

43:                                               ; preds = %8, %8, %8
  %44 = load ptr, ptr @type_iptr, align 8
  %45 = getelementptr inbounds %struct.Type_, ptr %44, i32 0, i32 1
  %46 = load ptr, ptr %45, align 8
  store ptr %46, ptr %2, align 8
  br label %116

47:                                               ; preds = %8
  %48 = load ptr, ptr %3, align 8
  %49 = getelementptr inbounds %struct.Type_, ptr %48, i32 0, i32 7
  %50 = load ptr, ptr %49, align 8
  %51 = getelementptr inbounds %struct.Decl_, ptr %50, i32 0, i32 11
  %52 = getelementptr inbounds %struct.anon.8, ptr %51, i32 0, i32 2
  %53 = getelementptr inbounds %struct.BitStructDecl, ptr %52, i32 0, i32 0
  %54 = load ptr, ptr %53, align 8
  %55 = getelementptr inbounds %struct.TypeInfo_, ptr %54, i32 0, i32 1
  %56 = load ptr, ptr %55, align 8
  store ptr %56, ptr %3, align 8
  br label %8

57:                                               ; preds = %8
  %58 = load ptr, ptr @type_void, align 8
  store ptr %58, ptr %3, align 8
  br label %115

59:                                               ; preds = %8
  %60 = load ptr, ptr %3, align 8
  %61 = getelementptr inbounds %struct.Type_, ptr %60, i32 0, i32 7
  %62 = load ptr, ptr %61, align 8
  store ptr %62, ptr %4, align 8
  %63 = load ptr, ptr %4, align 8
  %64 = call ptr @type_lowering(ptr noundef %63)
  store ptr %64, ptr %5, align 8
  %65 = load ptr, ptr %5, align 8
  %66 = load ptr, ptr %4, align 8
  %67 = icmp eq ptr %65, %66
  br i1 %67, label %68, label %70

68:                                               ; preds = %59
  %69 = load ptr, ptr %3, align 8
  store ptr %69, ptr %2, align 8
  br label %116

70:                                               ; preds = %59
  %71 = load ptr, ptr %5, align 8
  %72 = call ptr @type_get_ptr(ptr noundef %71)
  store ptr %72, ptr %2, align 8
  br label %116

73:                                               ; preds = %8, %8, %8, %8
  %74 = load ptr, ptr %3, align 8
  %75 = getelementptr inbounds %struct.Type_, ptr %74, i32 0, i32 7
  %76 = getelementptr inbounds %struct.TypeArray, ptr %75, i32 0, i32 0
  %77 = load ptr, ptr %76, align 8
  store ptr %77, ptr %6, align 8
  %78 = load ptr, ptr %6, align 8
  %79 = call ptr @type_lowering(ptr noundef %78)
  store ptr %79, ptr %7, align 8
  %80 = load ptr, ptr %7, align 8
  %81 = load ptr, ptr %6, align 8
  %82 = icmp eq ptr %80, %81
  br i1 %82, label %83, label %85

83:                                               ; preds = %73
  %84 = load ptr, ptr %3, align 8
  store ptr %84, ptr %2, align 8
  br label %116

85:                                               ; preds = %73
  %86 = load ptr, ptr %3, align 8
  %87 = getelementptr inbounds %struct.Type_, ptr %86, i32 0, i32 0
  %88 = load i32, ptr %87, align 8
  switch i32 %88, label %109 [
    i32 34, label %89
    i32 33, label %92
    i32 37, label %99
    i32 35, label %106
  ]

89:                                               ; preds = %85
  %90 = load ptr, ptr %7, align 8
  %91 = call ptr @type_get_subarray(ptr noundef %90)
  store ptr %91, ptr %2, align 8
  br label %116

92:                                               ; preds = %85
  %93 = load ptr, ptr %7, align 8
  %94 = load ptr, ptr %3, align 8
  %95 = getelementptr inbounds %struct.Type_, ptr %94, i32 0, i32 7
  %96 = getelementptr inbounds %struct.TypeArray, ptr %95, i32 0, i32 1
  %97 = load i32, ptr %96, align 8
  %98 = call ptr @type_get_array(ptr noundef %93, i32 noundef %97)
  store ptr %98, ptr %2, align 8
  br label %116

99:                                               ; preds = %85
  %100 = load ptr, ptr %7, align 8
  %101 = load ptr, ptr %3, align 8
  %102 = getelementptr inbounds %struct.Type_, ptr %101, i32 0, i32 7
  %103 = getelementptr inbounds %struct.TypeArray, ptr %102, i32 0, i32 1
  %104 = load i32, ptr %103, align 8
  %105 = call ptr @type_get_vector(ptr noundef %100, i32 noundef %104)
  store ptr %105, ptr %2, align 8
  br label %116

106:                                              ; preds = %85
  %107 = load ptr, ptr %7, align 8
  %108 = call ptr @type_get_flexible_array(ptr noundef %107)
  store ptr %108, ptr %2, align 8
  br label %116

109:                                              ; preds = %85
  br label %110

110:                                              ; preds = %109
  call void (ptr, ...) @error_exit(ptr noundef @.str, ptr noundef @.str.1, ptr noundef @__func__.type_lowering, ptr noundef @.str.2, i32 noundef 77) #4
  unreachable

111:                                              ; No predecessors!
  br label %112

112:                                              ; preds = %111
  br label %113

113:                                              ; preds = %112, %8
  %114 = load ptr, ptr %3, align 8
  store ptr %114, ptr %2, align 8
  br label %116

115:                                              ; preds = %57
  br label %8

116:                                              ; preds = %113, %106, %99, %92, %89, %83, %70, %68, %43, %41
  %117 = load ptr, ptr %2, align 8
  ret ptr %117
}